EXPORTS
    ATT @1
    AWGWire @2
    AppHacked @3
    BiseUcgen @4
    CapasitorTable @5
    CopyClipboard @6
    DamaTahtasi @7
    DirencDeger @8
    E24Resistor @9
    Factoriel @10
    GaussYontemi @11
    Kapasitor @12
    Ohm @13
    PTBS @14
    Plus @15
    Random @16
    RenkTablo @17
    SaniyeToMicrosaniye @18
    SayisalLotoRandomGenerating @19
    UnitsOfLength @20
    UnitsOfLengthTable @21
    Watt @22
    YildizCarpi @23
    _Z10ColorPrintPKci @24
    _Z10ColorPrintci @25
    _Z10ColorPrintdi @26
    _Z10ColorPrintei @27
    _Z10ColorPrintfi @28
    _Z10ColorPrintii @29
    _Z10ColorPrintxi @30
    _Z10ColorPrintyi @31
    _Z12ColorPrintlnPKci @32
    _Z12ColorPrintlnci @33
    _Z12ColorPrintlndi @34
    _Z12ColorPrintlnei @35
    _Z12ColorPrintlnfi @36
    _Z12ColorPrintlnii @37
    _Z12ColorPrintlnxi @38
    _Z12ColorPrintlnyi @39
    _Z3Powff @40
    _Z3Powii @41
    _Z5Clampfff @42
    _Z5Clampiii @43
    _ZN10FileStream11fileManagerEPKcS1_ @44
    _ZN10FileStream11fileManagerEPKcS1_S1_i @45
    _ZN11Kernel32dll10getVersionEv @46
    _ZN11Kernel32dll12getLocalTimeENSt7__cxx1112basic_stringIcSt11char_traitsIcESaIcEEE @47
    _ZN11Kernel32dll13getSystemTimeENSt7__cxx1112basic_stringIcSt11char_traitsIcESaIcEEE @48
    _ZN5Array14SelectionShortEPii @49
    _ZN5Array6getMaxEPii @50
    _ZN5Array9countSortEPiii @51
    _ZN5Array9radixsortEPii @52
    _ZN8Cryption5ShiftEPci @53
    _ZN8Winmmdll18mciSendStringWinmmEPKc @54
    _ZN8Winmmdll19mciSendStringAWinmmEPKc @55
    _ZSt3powIiiEN9__gnu_cxx11__promote_2IT_T0_NS0_9__promoteIS2_XsrSt12__is_integerIS2_E7__valueEE6__typeENS4_IS3_XsrS5_IS3_E7__valueEE6__typeEE6__typeES2_S3_ @56
    _ZSt4sqrtf @57
    _ZSteqIcSt11char_traitsIcESaIcEEbRKNSt7__cxx1112basic_stringIT_T0_T1_EEPKS5_ @58
    add @59
    araAsalSayi @60
    asalSayi @61
    asalSayi2 @62
    delay_ms @63
    divition @64
    halfTriangle @65
    hand @66 DATA
    ikilikTaban @67
    invertedHalfTriangle @68
    mADonustur @69
    mod @70
    molaHesap @71
    mul @72
    multiplicationTable @73
    rasyonelSayiSadelestirme @74
    rightHalfReverseTriangle @75
    soundCaculator @76
    sub @77
    tekCiftSayi @78
    voltageDivider @79
